; Function Attrs: nounwind uwtable
define hidden void @ff_mpa_synth_filter_float(ptr noundef readonly captures(none) %0, ptr noundef %1, ptr noundef captures(none) %2, ptr noundef %3, ptr noundef %4, ptr noundef %5, i64 noundef %6, ptr noundef %7) local_unnamed_addr #4 {
  %9 = load i32, ptr %2, align 4, !tbaa !4
  %10 = sext i32 %9 to i64
  %11 = getelementptr inbounds float, ptr %1, i64 %10
  %12 = getelementptr inbounds nuw i8, ptr %0, i64 16
  %13 = load ptr, ptr %12, align 8, !tbaa !12
  tail call void %13(ptr noundef %11, ptr noundef %7) #10
  %14 = load ptr, ptr %0, align 8, !tbaa !15
  tail call void %14(ptr noundef %11, ptr noundef %3, ptr noundef %4, ptr noundef %5, i64 noundef %6) #10
  %15 = add i32 %9, 480
  %16 = and i32 %15, 511
  store i32 %16, ptr %2, align 4, !tbaa !4
  ret void
}